target datalayout = "e-m:e-p270:32:32-p271:32:32-p272:64:64-i64:64-i128:128-f80:128-n8:16:32:64-S128"
target triple = "x86_64-pc-linux-gnu"

%struct.PJconsts = type { ptr, ptr, ptr, ptr, ptr, ptr, ptr, ptr, ptr, ptr, ptr, ptr, i32, ptr, ptr, ptr, ptr, ptr, ptr, ptr, ptr, double, double, double, double, double, double, double, double, double, double, double, double, double, double, double, double, double, double, double, double, double, double, i32, i32, i32, i32, i32, i32, i32, i32, i32, i32, i32, ptr, ptr, ptr, ptr, ptr, ptr, double, double, double, double, double, double, double, double, double, double, double, i32, [7 x double], i32, ptr, ptr, double, double, i32, [4 x i8], %"class.std::shared_ptr", i8, double, i8, %"class.std::__cxx11::basic_string", %"class.std::__cxx11::basic_string", %"class.std::__cxx11::basic_string", i8, %"class.std::vector", i32, %"class.std::vector.3", i32, i8, i8, i8, ptr }
%"class.std::shared_ptr" = type { %"class.std::__shared_ptr" }
%"class.std::__shared_ptr" = type { ptr, %"class.std::__shared_count" }
%"class.std::__shared_count" = type { ptr }
%"class.std::__cxx11::basic_string" = type { %"struct.std::__cxx11::basic_string<char>::_Alloc_hider", i64, %union.anon }
%"struct.std::__cxx11::basic_string<char>::_Alloc_hider" = type { ptr }
%union.anon = type { i64, [8 x i8] }
%"class.std::vector" = type { %"struct.std::_Vector_base" }
%"struct.std::_Vector_base" = type { %"struct.std::_Vector_base<osgeo::proj::operation::GridDescription, std::allocator<osgeo::proj::operation::GridDescription>>::_Vector_impl" }
%"struct.std::_Vector_base<osgeo::proj::operation::GridDescription, std::allocator<osgeo::proj::operation::GridDescription>>::_Vector_impl" = type { %"struct.std::_Vector_base<osgeo::proj::operation::GridDescription, std::allocator<osgeo::proj::operation::GridDescription>>::_Vector_impl_data" }
%"struct.std::_Vector_base<osgeo::proj::operation::GridDescription, std::allocator<osgeo::proj::operation::GridDescription>>::_Vector_impl_data" = type { ptr, ptr, ptr }
%"class.std::vector.3" = type { %"struct.std::_Vector_base.4" }
%"struct.std::_Vector_base.4" = type { %"struct.std::_Vector_base<PJCoordOperation, std::allocator<PJCoordOperation>>::_Vector_impl" }
%"struct.std::_Vector_base<PJCoordOperation, std::allocator<PJCoordOperation>>::_Vector_impl" = type { %"struct.std::_Vector_base<PJCoordOperation, std::allocator<PJCoordOperation>>::_Vector_impl_data" }
%"struct.std::_Vector_base<PJCoordOperation, std::allocator<PJCoordOperation>>::_Vector_impl_data" = type { ptr, ptr, ptr }
%"struct.(anonymous namespace)::pj_col_urban" = type { double, double, double, double, double, double }
%struct.PJ_XY = type { double, double }
%struct.PJ_LP = type { double, double }

; Function Attrs: mustprogress nounwind uwtable
define internal { double, double } @_ZL17col_urban_inverse5PJ_XYP8PJconsts(double %0, double %1, ptr noundef %2) #6 {
  %4 = alloca %struct.PJ_LP, align 8
  %5 = alloca %struct.PJ_XY, align 8
  %6 = alloca ptr, align 8
  %7 = alloca ptr, align 8
  %8 = alloca double, align 8
  %9 = alloca double, align 8
  %10 = getelementptr inbounds nuw { double, double }, ptr %5, i32 0, i32 0
  store double %0, ptr %10, align 8
  %11 = getelementptr inbounds nuw { double, double }, ptr %5, i32 0, i32 1
  store double %1, ptr %11, align 8
  store ptr %2, ptr %6, align 8, !tbaa !3
  call void @llvm.lifetime.start.p0(i64 8, ptr %7) #7
  %12 = load ptr, ptr %6, align 8, !tbaa !3
  %13 = getelementptr inbounds nuw %struct.PJconsts, ptr %12, i32 0, i32 11
  %14 = load ptr, ptr %13, align 8, !tbaa !43
  store ptr %14, ptr %7, align 8, !tbaa !41
  %15 = load ptr, ptr %6, align 8, !tbaa !3
  %16 = getelementptr inbounds nuw %struct.PJconsts, ptr %15, i32 0, i32 61
  %17 = load double, ptr %16, align 8, !tbaa !51
  %18 = getelementptr inbounds nuw %struct.PJ_XY, ptr %5, i32 0, i32 1
  %19 = load double, ptr %18, align 8, !tbaa !66
  %20 = load ptr, ptr %7, align 8, !tbaa !41
  %21 = getelementptr inbounds nuw %"struct.(anonymous namespace)::pj_col_urban", ptr %20, i32 0, i32 5
  %22 = load double, ptr %21, align 8, !tbaa !58
  %23 = fdiv double %19, %22
  %24 = fadd double %17, %23
  %25 = load ptr, ptr %7, align 8, !tbaa !41
  %26 = getelementptr inbounds nuw %"struct.(anonymous namespace)::pj_col_urban", ptr %25, i32 0, i32 3
  %27 = load double, ptr %26, align 8, !tbaa !56
  %28 = getelementptr inbounds nuw %struct.PJ_XY, ptr %5, i32 0, i32 0
  %29 = load double, ptr %28, align 8, !tbaa !64
  %30 = load ptr, ptr %7, align 8, !tbaa !41
  %31 = getelementptr inbounds nuw %"struct.(anonymous namespace)::pj_col_urban", ptr %30, i32 0, i32 4
  %32 = load double, ptr %31, align 8, !tbaa !57
  %33 = fdiv double %29, %32
  %34 = fmul double %27, %33
  %35 = getelementptr inbounds nuw %struct.PJ_XY, ptr %5, i32 0, i32 0
  %36 = load double, ptr %35, align 8, !tbaa !64
  %37 = load ptr, ptr %7, align 8, !tbaa !41
  %38 = getelementptr inbounds nuw %"struct.(anonymous namespace)::pj_col_urban", ptr %37, i32 0, i32 4
  %39 = load double, ptr %38, align 8, !tbaa !57
  %40 = fdiv double %36, %39
  %41 = fneg double %34
  %42 = call double @llvm.fmuladd.f64(double %41, double %40, double %24)
  %43 = getelementptr inbounds nuw %struct.PJ_LP, ptr %4, i32 0, i32 1
  store double %42, ptr %43, align 8, !tbaa !61
  call void @llvm.lifetime.start.p0(i64 8, ptr %8) #7
  %44 = getelementptr inbounds nuw %struct.PJ_LP, ptr %4, i32 0, i32 1
  %45 = load double, ptr %44, align 8, !tbaa !61
  %46 = call double @sin(double noundef %45) #7, !tbaa !52
  store double %46, ptr %8, align 8, !tbaa !47
  call void @llvm.lifetime.start.p0(i64 8, ptr %9) #7
  %47 = load ptr, ptr %6, align 8, !tbaa !3
  %48 = getelementptr inbounds nuw %struct.PJconsts, ptr %47, i32 0, i32 27
  %49 = load double, ptr %48, align 8, !tbaa !53
  %50 = load double, ptr %8, align 8, !tbaa !47
  %51 = fmul double %49, %50
  %52 = load double, ptr %8, align 8, !tbaa !47
  %53 = fneg double %51
  %54 = call double @llvm.fmuladd.f64(double %53, double %52, double 1.000000e+00)
  %55 = call double @sqrt(double noundef %54) #7, !tbaa !52
  %56 = fdiv double 1.000000e+00, %55
  store double %56, ptr %9, align 8, !tbaa !47
  %57 = getelementptr inbounds nuw %struct.PJ_XY, ptr %5, i32 0, i32 0
  %58 = load double, ptr %57, align 8, !tbaa !64
  %59 = load ptr, ptr %7, align 8, !tbaa !41
  %60 = getelementptr inbounds nuw %"struct.(anonymous namespace)::pj_col_urban", ptr %59, i32 0, i32 4
  %61 = load double, ptr %60, align 8, !tbaa !57
  %62 = load double, ptr %9, align 8, !tbaa !47
  %63 = fmul double %61, %62
  %64 = getelementptr inbounds nuw %struct.PJ_LP, ptr %4, i32 0, i32 1
  %65 = load double, ptr %64, align 8, !tbaa !61
  %66 = call double @cos(double noundef %65) #7, !tbaa !52
  %67 = fmul double %63, %66
  %68 = fdiv double %58, %67
  %69 = getelementptr inbounds nuw %struct.PJ_LP, ptr %4, i32 0, i32 0
  store double %68, ptr %69, align 8, !tbaa !63
  call void @llvm.lifetime.end.p0(i64 8, ptr %9) #7
  call void @llvm.lifetime.end.p0(i64 8, ptr %8) #7
  call void @llvm.lifetime.end.p0(i64 8, ptr %7) #7
  %70 = load { double, double }, ptr %4, align 8
  ret { double, double } %70
}