; Function Attrs: mustprogress nofree nounwind willreturn memory(readwrite, inaccessiblemem: write) uwtable
define internal { double, double } @_ZL17col_urban_inverse5PJ_XYP8PJconsts(double %0, double %1, ptr noundef readonly captures(none) %2) #5 {
  %4 = getelementptr inbounds nuw i8, ptr %2, i64 88
  %5 = load ptr, ptr %4, align 8, !tbaa !40
  %6 = getelementptr inbounds nuw i8, ptr %2, i64 448
  %7 = load double, ptr %6, align 8, !tbaa !46
  %8 = getelementptr inbounds nuw i8, ptr %5, i64 40
  %9 = load double, ptr %8, align 8, !tbaa !53
  %10 = fdiv double %1, %9
  %11 = fadd double %7, %10
  %12 = getelementptr inbounds nuw i8, ptr %5, i64 24
  %13 = load double, ptr %12, align 8, !tbaa !51
  %14 = getelementptr inbounds nuw i8, ptr %5, i64 32
  %15 = load double, ptr %14, align 8, !tbaa !52
  %16 = fdiv double %0, %15
  %17 = fneg double %16
  %18 = fmul double %13, %17
  %19 = tail call double @llvm.fmuladd.f64(double %18, double %16, double %11)
  %20 = tail call double @sin(double noundef %19) #7, !tbaa !47
  %21 = getelementptr inbounds nuw i8, ptr %2, i64 216
  %22 = load double, ptr %21, align 8, !tbaa !48
  %23 = fneg double %20
  %24 = fmul double %22, %23
  %25 = tail call double @llvm.fmuladd.f64(double %24, double %20, double 1.000000e+00)
  %26 = tail call double @sqrt(double noundef %25) #7, !tbaa !47
  %27 = fdiv double 1.000000e+00, %26
  %28 = fmul double %15, %27
  %29 = tail call double @cos(double noundef %19) #7, !tbaa !47
  %30 = fmul double %29, %28
  %31 = fdiv double %0, %30
  %.fca.0.insert = insertvalue { double, double } poison, double %31, 0
  %.fca.1.insert = insertvalue { double, double } %.fca.0.insert, double %19, 1
  ret { double, double } %.fca.1.insert
}